c__builtin__
set
p0
((lp1
V
p2
aV\u6e05\u6d01\u7528\u54c1
p3
aV\u6c34\u5177\u9152\u5177
p4
aV\u517b\u751f/\u4fdd?\u517b\u751f
p5
aV\u5b97\u6559/\u5e86?\u4f5b\u6559\u97f3\u4e50
p6
aV\u7f8e\u6587
p7
aV\u54f2\u5b66/\u5b97?\u5b97\u6559\u7406\u8bba\u4e0e\u6982?
p8
aV\u7ae5\u88c5\u7ae5\u978b
p9
aV\u5065\u8eab\u4e0e\u4fdd
p10
aV\u653f\u6cbb/\u519b?\u519b\u4e8b\u53f2
p11
aV\u6742\u5fd7/\u671f?\u884c\u4e1a\u520a\u7269
p12
aV\u7535\u5f71
p13
aV\u5899\u5730\u9762\u6750
p14
aV\u5ba2\u5385\u5bb6\u5177
p15
aV\u8003\u8bd5/\u8003?\u64ad\u97f3\u4e3b\u6301
p16
aV\u5fc3\u7406\u5b66
p17
aV\u6742\u5fd7/\u671f?\u5386\u53f2
p18
aV\u793c\u54c1\u6587\u5177
p19
aV\u5185\u5730\u6d41\u884c
p20
aV\u745c\u4f3d/\u5851?\u809a\u76ae\u821e
p21
aV\u6587\u827a\u793e\u79d1
p22
aV\u5b57\u5178\u8bcd\u5178
p23
aV\u5a31\u4e50/\u4f11?\u8d77\u540d
p24
aV\u52a8\u6f2b/\u5e7d?\u5176\u4ed6\u56fd\u5916\u6f2b\u753b
p25
aV\u4e9a\u5065\u5eb7\u8c03
p26
aV\u751f\u6d3b/\u767e?\u9910\u996e
p27
aV\u8425\u517b\u8f85\u98df
p28
aV\u4f53\u80b2/\u8fd0?\u592a\u6781/\u6b66\u672f/\u6c14?
p29
aV\u6742\u5fd7/\u671f?\u8d22\u7ecf\u7ba1\u7406
p30
aV\u534e\u8bed\u6d41\u884c
p31
aV\u65f6\u5c1a/\u4f11?\u9b54\u672f/\u76ca\u667a\u6e38\u620f
p32
aV\u8fd0\u8425\u5546
p33
aV\u653f\u6cbb/\u519b?\u4e2d\u56fd\u653f\u6cbb
p34
aV\u52a8\u6f2b/\u5e7d?\u5e7d\u9ed8/\u7b11\u8bdd\u96c6
p35
aV\u7537\u978b
p36
aV\u53a8\u623f\u536b\u6d74
p37
aV\u745c\u4f3d\u97f3\u4e50
p38
aV\u65f6\u5c1a\u9970\u54c1
p39
aV\u5e7c\u513f/\u5c11?\u542f\u8499
p40
aV\u65c5\u6e38/\u5730?\u81ea\u52a9\u6e38
p41
aV\u7eaf\u91d1K\u91d1?\u540a\u5760/\u9879\u94fe
p42
aV\u54f2\u5b66/\u5b97?\u4f26\u7406\u5b66
p43
aV\u65c5\u6e38/\u5730?\u56fd\u5185\u6e38
p44
aV\u9a71\u52a8\u5668
p45
aV\u7968\u52a1
p46
aV\u9065\u63a7/\u7535?\u9065\u63a7\u98de\u673a
p47
aV\u653f\u6cbb/\u519b?\u515a\u653f\u8bfb\u7269
p48
aV\u4f53\u80b2\u5a31\u4e50
p49
aV\u5916\u6587\u56fe\u4e66
p50
aV\u7537\u58eb\u62a4\u7406
p51
aV\u6559\u6750/\u8003?\u804c\u4e1a\u6280\u672f\u57f9\u8bad?
p52
aV\u65f6\u5c1a\u54c1\u724c
p53
aV\u7ecf\u5178\u6000\u65e7
p54
aV\u5404\u79cd\u7ebf\u7f06
p55
aV\u653f\u6cbb/\u519b?\u4e2d\u56fd\u5171\u4ea7\u515a
p56
aV\u5de5\u4e1a/\u79d1?\u5efa\u7b51
p57
aV\u5962\u4f88\u54c1
p58
aV\u7535\u8111\u57f9\u8bad
p59
aV\u6742\u5fd7/\u671f?\u5f71\u89c6\u52a8\u6f2b
p60
aV\u5bb6\u5177
p61
aV\u5973\u6027\u62a4\u7406
p62
aV\u4e2d\u56fd\u6447\u6eda
p63
aV\u519c\u4e1a/\u6797?\u519c\u4e1a\u5de5\u7a0b
p64
aV\u8336\u5177/\u5496?\u5176\u4ed6
p65
aV\u653f\u6cbb/\u519b?\u53cd\u6050
p66
aV\u5957\u88c5\u4e66
p67
aV\u6563\u70ed\u5668
p68
aV\u9762\u90e8\u62a4\u7406
p69
aV\u6742\u5fd7/\u671f?\u6587\u5b66\u6587\u6458
p70
aV\u65f6\u5c1a\u9753\u5986
p71
aV\u7f51\u7edc\u539f\u521b
p72
aV\u4e94\u91d1\u7535\u6599
p73
aV\u53a8\u623f\u7535\u5668
p74
aV\u65f6\u5c1a/\u7f8e?\u65f6\u5c1a\u751f\u6d3b
p75
aV\u8fd0\u52a8\u5668\u68b0
p76
aV\u9633\u53f0/\u6237?\u82b1\u67b6/\u88c5\u9970\u67b6
p77
aV\u70f9\u996a/\u7f8e?\u7cd6\u5c3f\u75c5\u4eba\u98df\u8c31
p78
aV\u56fd\u5b66/\u53e4?\u56fd\u5b66\u666e\u53ca\u8bfb\u7269
p79
aV\u7235\u58eb/\u84dd?\u7235\u58eb
p80
aV\u5de5\u5177\u4e66
p81
aV\u5a5a\u604b/\u4e24?\u6027\u77e5\u8bc6/\u4e24\u6027\u5173
p82
aV\u5176\u4ed6\u5206\u7c7b
p83
aV\u4e2a\u62a4\u5065\u5eb7
p84
aV\u54f2\u5b66/\u5b97?\u4f5b\u6559\u539f\u5178
p85
aV\u5bb6\u88c5\u8f6f\u9970
p86
aV\u53e3\u8154\u62a4\u7406
p87
aV\u6bcd\u5a74\u73a9\u5177
p88
aV\u52a8\u6f2b/\u5e7d?\u6b27\u7f8e\u6f2b\u753b
p89
aV\u79d1\u5e7b
p90
aV\u6570\u5b57\u6742\u5fd7
p91
aV\u7279\u8272\u5206\u7c7b
p92
aV\u5ba0\u7269\u7528\u54c1
p93
aV\u5176\u5b83
p94
aV\u6742\u5fd7/\u671f?\u5065\u5eb7\u7f8e\u98df
p95
aV\u53e4\u5178\u5668\u4e50
p96
aV\u8336\u5177/\u5496?\u5496\u5561\u5177
p97
aV\u65f6\u5c1a/\u4f11?\u98ce\u6c34/\u661f\u5ea7/\u8fd0?
p98
aV\u8003\u8bd5/\u8003?\u9ad8\u8003
p99
aV\u513f\u79d1\u7528\u836f
p100
aV\u4f53\u80b2/\u8fd0?\u5176\u4ed6\u8fd0\u52a8
p101
aV\u7cfb\u7edf\u517b\u62a4
p102
aV\u5a5a\u604b/\u4e24?\u5a5a\u59fb
p103
aV\u54f2\u5b66/\u5b97?\u5b97\u6559\u672f\u6570
p104
aV\u4e2d\u8001\u5e74\u5065
p105
aV\u56fe\u4e66\u4fc3\u9500
p106
aV\u53a8\u623f\u7528\u5177
p107
aV\u97f3\u4e50DVD/
p108
aV\u9910\u5385\u5bb6\u5177
p109
aV\u7eaf\u91d1K\u91d1?\u6212\u6307
p110
aV\u7f8e\u98df/\u5c45?\u5c45\u5bb6\u751f\u6d3b\u6307\u5357
p111
aV\u620f\u5267/\u7efc?\u7efc\u827a\u665a\u4f1a
p112
aV\u6559\u6750
p113
aV\u804c\u4e1a\u6559\u80b2
p114
aV\u65f6\u5c1a/\u4f11?\u51cf\u80a5\u7626\u8eab
p115
aV\u9633\u53f0/\u6237?\u6652\u8863\u67b6/\u70eb\u8863\u677f
p116
aV\u65c5\u6e38/\u5730?\u70ed\u70b9\u6e38
p117
aV\u529e\u516c\u6587\u4eea
p118
aV\u52a8\u6f2b/\u5e7d?\u52a8\u6f2b\u5b66\u5802
p119
aV\u6742\u5fd7/\u671f?\u5bb6\u5c45
p120
aV\u653f\u6cbb/\u519b?\u653f\u6cbb\u7ecf\u5178\u8457\u4f5c
p121
aV\u5b89\u5168\u81ea\u9a7e
p122
aV\u6742\u5fd7/\u671f?\u6bcd\u5a74\u80b2\u513f
p123
aV\u8fd0\u52a8
p124
aV\u97f3\u4e50\u5957\u88c5
p125
aV\u5bb6\u5ead\u4e0e\u80b2
p126
aV\u996e\u6599\u51b2\u8c03
p127
aV\u6210\u4eba\u7528\u54c1
p128
aV\u54f2\u5b66/\u5b97?\u9053\u6559
p129
aV\u65c5\u6e38/\u5730?\u65c5\u6e38\u6307\u5357
p130
aV\u5916\u8bbe\u4ea7\u54c1
p131
aV\u6570\u7801\u8bbe\u5907
p132
aV\u670d\u52a1\u8f6f\u4ef6
p133
aV\u5b9d\u77f3\u73cd\u73e0
p134
aV\u56fd\u5b66/\u53e4?\u96c6\u90e8
p135
aV\u94f6\u9970
p136
aV\u6c7d\u8f66\u97f3\u4e50
p137
aV\u8eab\u4f53\u62a4\u80a4
p138
aV\u6237\u5916\u88c5\u5907
p139
aV\u7537\u6027\u5065\u5eb7
p140
aV\u7537\u88c5
p141
aV\u6742\u5fd7/\u671f?\u793e\u4f1a\u4e07\u8c61
p142
aV\u949f\u8868\u9996\u9970
p143
aV\u54f2\u5b66/\u5b97?\u54f2\u5b66\u7406\u8bba\u4e0e\u6d41?
p144
aV\u52a8\u6f2b/\u5e7d?\u65e5\u97e9\u6f2b\u753b
p145
aV\u4e2d\u56fd\u6c11\u65cf
p146
aV\u653f\u6cbb/\u519b?\u5404\u56fd\u653f\u6cbb
p147
aV\u611f\u5192\u7528\u836f
p148
aV\u52a8\u6f2b/\u5e7d?\u5927\u9646\u6f2b\u753b
p149
aV\u6d41\u884c\u7537\u978b
p150
aV\u65c5\u6e38/\u5730?\u5730\u7403\u4eea
p151
aV\u673a\u7968
p152
aV\u670d\u9970\u5bdd\u5c45
p153
aV\u6559\u6750/\u6559?\u521d\u4e2d
p154
aV\u6742\u5fd7/\u671f?\u65c5\u6e38\u5730\u7406
p155
aV\u56fd\u4ea7\u54c1\u724c
p156
aV\u5b97\u6559
p157
aV\u751f\u6d3b/\u767e?\u4f53\u80b2/\u8fd0\u52a8/\u5065?
p158
aV\u5730\u65b9\u7279\u4ea7
p159
aV\u653f\u6cbb/\u519b?\u519b\u4e8b\u6587\u5b66
p160
aV\u7ecf\u5178\u7535\u5f71
p161
aV\u6027\u798f\u8f85\u52a9
p162
aV\u5ea7\u57ab\u811a\u57ab
p163
aV\u6c34\u6676\u739b\u7459
p164
aV\u7535\u5b50\u4e0e\u901a
p165
aV\u50a8\u7269\u5bb6\u5177
p166
aV\u5a31\u4e50/\u4f11?\u661f\u5ea7\u8fd0\u7a0b
p167
aV\u70f9\u996a/\u7f8e?\u897f\u9910
p168
aV\u5a31\u4e50/\u4f11?\u624b\u5de5DIY
p169
aV\u52a8\u6f2b/\u5e7d?\u5c0f\u8bf4/\u540d\u8457\u6f2b\u753b
p170
aV\u91d1\u878d\u4e0e\u6295
p171
aV\u7f8e\u98df/\u5c45?\u5c45\u5bb6\u5b89\u5168\u4e0e\u5e38?
p172
aV\u65e5\u672c\u54c1\u724c
p173
aV\u65c5\u6e38/\u5730?\u6302\u56fe/\u6298\u53e0\u56fe
p174
aV\u70f9\u996a/\u7f8e?\u996e\u98df\u6587\u5316
p175
aV\u6709\u58f0\u8bfb\u7269
p176
aV\u978b\u9774
p177
aV\u5c0f\u8bf4
p178
aV\u7eaf\u91d1K\u91d1?\u624b\u956f/\u624b\u94fe/\u811a?
p179
aV\u6bdb\u7ed2\u5e03\u827a
p180
aV\u521b\u610f\u51cf\u538b
p181
aV\u65c5\u6e38/\u5730?\u5206\u7701/\u533a\u57df/\u57ce?
p182
aV\u54f2\u5b66/\u5b97?\u72b9\u592a\u6559
p183
aV\u9b45\u529b\u5f69\u5986
p184
aV\u65f6\u5c1a/\u7f8e?\u670d\u9970\u642d\u914d
p185
aV\u54f2\u5b66/\u5b97?\u903b\u8f91\u5b66
p186
aV\u7f8e\u98df/\u5c45?\u5ba0\u7269
p187
aV\u949f\u8868
p188
aV\u9065\u63a7/\u7535?\u9065\u63a7\u8239
p189
aV\u6447\u6eda
p190
aV\u653f\u6cbb/\u519b?\u5916\u4ea4\u3001\u56fd\u9645\u5173?
p191
aV\u52a8\u6f2b
p192
aV\u5200\u526a\u83dc\u677f
p193
aV\u653f\u6cbb/\u519b?\u7ecf\u5178\u519b\u4e8b\u8457\u4f5c
p194
aV\u4f53\u80b2/\u8fd0?\u68cb\u724c
p195
aV\u5149\u76d8\u7528\u54c1
p196
aV\u6539\u88c5\u914d\u4ef6
p197
aV\u6742\u5fd7/\u671f?\u827a\u672f/\u6444\u5f71/\u8bbe?
p198
aV\u751f\u6d3b\u767e\u79d1
p199
aV\u706f\u9970\u7167\u660e
p200
aV\u65f6\u5c1a/\u7f8e?\u51cf\u80a5\u7626\u8eab
p201
aV\u6742\u5fd7/\u671f?\u4eba\u6587\u5730\u7406
p202
aV\u65c5\u6e38/\u5730?\u5168\u56fd\u9ad8\u901f\u516c\u8def/
p203
aV\u7235\u58eb/\u84dd?\u84dd\u8c03
p204
aV\u54f2\u5b66/\u5b97?\u5b97\u6559\u7ecf\u5178\u8457\u4f5c
p205
aV\u519c\u4e1a/\u6797?\u755c\u7267\u3001\u72e9\u730e\u3001?
p206
aV\u5973\u978b
p207
aV\u79fb\u52a8\u5b58\u50a8
p208
aV\u5988\u5988\u4e13\u533a
p209
aV\u88c5\u9970\u6750\u6599
p210
aV\u519c\u4e1a/\u6797?\u519c\u827a\u5b66
p211
aV\u51fa\u884c\u88c5\u5907
p212
aV\u975e\u82f1\u8bed\u8bed
p213
aV\u54f2\u5b66
p214
aV\u4e2a\u4eba\u62a4\u7406
p215
aV\u9b45\u529b\u836f\u5986
p216
aV\u5efa\u7b51
p217
aV\u745e\u58eb\u54c1\u724c
p218
aV\u514d\u8d39\u4e66
p219
aV\u76f8\u58f0/\u620f?\u620f\u66f2
p220
aV\u519c\u4e1a/\u6797?\u6797\u4e1a
p221
aV\u56fd\u5b66/\u53e4?\u4e66\u76ee\u8f9e\u5178
p222
aV\u4fdd\u5065\u5668\u68b0
p223
aV\u5582\u517b\u7528\u54c1
p224
aV\u7384\u5e7b\u5947\u5e7b
p225
aV\u6742\u5fd7/\u671f?\u751f\u6d3b\u4f11\u95f2
p226
aV\u5546\u4e1a\u529e\u516c
p227
aV\u65f6\u5c1a/\u7f8e?\u5f69\u5986/\u7f8e\u53d1/\u7f8e?
p228
aV\u70f9\u996a/\u7f8e?\u5730\u65b9\u7f8e\u98df
p229
aV\u529e\u516c\u6253\u5370
p230
aV\u65c5\u6e38/\u5730?\u5bfc\u6e38\u5fc5\u5907
p231
aV\u6444\u5f71\u6444\u50cf
p232
aV\u6559\u6750/\u6559?\u5c0f\u5b66
p233
aV\u7537\u79d1\u7528\u836f
p234
aV\u65c5\u6e38/\u5730?\u660e\u4fe1\u7247
p235
aV\u5927\u4f17\u5065\u5eb7
p236
aV\u76ca\u667a\u73a9\u5177
p237
aV\u8336\u5177/\u5496?\u8336\u58f6
p238
aV\u98df\u5c1a\u793c\u5238
p239
aV\u91d1\u94f6\u6295\u8d44
p240
aV\u52b1\u5fd7\u4e0e\u6210
p241
aV\u8336\u5177/\u5496?\u8336\u53f6\u7f50
p242
aV\u5a74\u513f\u5bb6\u5c45
p243
aV\u70f9\u996a/\u7f8e?\u7f8e\u98df\u5730\u56fe
p244
aV\u7f8e\u98df/\u5c45?\u70f9\u996a\u3001\u7f8e\u98df\u4e0e?
p245
aV\u6d17\u62a4\u7528\u54c1
p246
aV\u6587\u5a31\u5468\u8fb9
p247
aV\u7ae5\u88c5
p248
aV\u65f6\u5c1a/\u7f8e?\u7f8e\u5bb9\u62a4\u80a4
p249
aV\u6587\u6559\u793e\u79d1
p250
aV\u56fd\u5b66/\u53e4?\u56fd\u5b66\u540d\u5bb6
p251
aV\u670d\u88c5\u978b\u5e3d
p252
aV\u6559\u80b2\u540d\u5bb6
p253
aV\u6c11\u65cf\u97f3\u4e50
p254
aV\u6742\u5fd7/\u671f?\u79d1\u666e
p255
aV\u54f2\u5b66/\u5b97?\u57fa\u7763\u6559
p256
aV\u65c5\u6e38/\u5730?\u65c5\u6e38\u6444\u5f71
p257
aV\u620f\u5267/\u7efc?\u76f8\u58f0\u3001\u5c0f\u54c1
p258
aV\u6742\u5fd7/\u671f?\u5916\u8bed
p259
aV\u5a03\u5a03\u73a9\u5177
p260
aV\u8865\u76ca\u7c7b
p261
aV\u6559\u6750\u6559\u8f85
p262
aV\u65f6\u5c1a\u7537\u5305
p263
aV\u4f53\u80b2/\u8fd0?\u4f11\u95f2\u8fd0\u52a8
p264
aV\u4e2d\u5c0f\u5b66\u6559
p265
aV\u638c\u4e0a\u7535\u8111
p266
aV\u533b\u62a4\u7f8e\u5bb9
p267
aV\u8336\u5177/\u5496?\u8336\u5177\u914d\u4ef6
p268
aV\u8f6f\u4ef6
p269
aV\u6570\u7801\u914d\u4ef6
p270
aV\u5a5a\u5e86
p271
aV\u620f\u5267/\u7efc?\u4eac\u5267
p272
aV\u70f9\u996a/\u7f8e?\u517b\u751f\u98df\u7597
p273
aV\u5a31\u4e50/\u4f11?\u5fc3\u7406\u6d4b\u8bd5
p274
aVHIFI\u53d1\u70e7
p275
aV\u54f2\u5b66/\u5b97?\u5b97\u6559\u827a\u672f
p276
aV\u8336\u5177/\u5496?\u8336\u676f
p277
aV\u523b\u5f55\u789f\u7247
p278
aV\u5916\u8bed\u5b66\u4e60
p279
aV\u519c\u4e1a/\u6797?\u690d\u7269\u4fdd\u62a4
p280
aV\u513f\u7ae5\u5f71\u89c6
p281
aV\u5b97\u6559/\u5e86?\u57fa\u7763\u6559\u97f3\u4e50
p282
aV\u65c5\u6e38
p283
aV\u5176\u4ed6
p284
aV\u897f\u6d0b\u4e50\u5668
p285
aV\u9752\u5c11\u513f\u7ae5
p286
aV\u4e66\u623f\u5bb6\u5177
p287
aV\u5927 \u5bb6 \u7535
p288
aV\u5065\u8eab
p289
aV\u9762\u90e8\u62a4\u80a4
p290
aV\u4f5c\u54c1\u7cbe\u9009
p291
aV\u79d1\u5b66
p292
aV\u9752\u6625\u6587\u5b66
p293
aV\u65c5\u6e38/\u5730?\u65c5\u6e38\u968f\u7b14
p294
aV\u5973\u88c5
p295
aV\u70f9\u996a\u9505\u5177
p296
aV\u54f2\u5b66/\u5b97?\u4f5b\u6559\u540d\u5bb6\u4f5c\u54c1
p297
aV\u751f\u9c9c\u98df\u54c1
p298
aV\u9152\u996e\u51b2\u8c03
p299
aV\u5200\u526a\u7827\u677f
p300
aV\u54f2\u5b66/\u5b97?\u9a6c\u514b\u601d\u54f2\u5b66
p301
aV\u529f\u80fd\u7bb1\u5305
p302
aV\u809d\u80c6\u80f0\u7c7b
p303
aV\u793c\u54c1
p304
aV\u8ba1\u7b97\u673a\u4e0e
p305
aV\u6742\u5fd7/\u671f?\u6c7d\u8f66
p306
aV\u8fdb\u53e3CD
p307
aV\u673a\u7bb1\u7535\u6e90
p308
aV\u73e0\u5b9d\u9996\u9970
p309
aV\u5a31\u4e50/\u4f11?\u4f11\u95f2\u6e38\u620f
p310
aV\u6536\u7eb3\u4fdd\u9c9c
p311
aV\u533b\u5b66
p312
aV\u5bb6\u5c45\u65e5\u7528
p313
aV\u65f6\u5c1a\u5973\u978b
p314
aV\u65c5\u6e38/\u5730?\u56fd\u5916\u6e38
p315
aV\u513f\u7ae5\u624b\u8868
p316
aV\u7ba1\u7406
p317
aV\u519c\u4e1a/\u6797?\u52a8\u7269\u533b\u5b66
p318
aV\u82f1\u8bed\u5b66\u4e60
p319
aV\u9633\u53f0/\u6237?\u6237\u5916\u5bb6\u5177
p320
aV\u519c\u4e1a/\u6797?\u6c34\u4ea7\u3001\u6e14\u4e1a
p321
aV\u56fd\u5b66/\u53e4?\u56db\u5e93\u5168\u4e66
p322
aV\u8336\u5177/\u5496?\u8336\u5ba0\u6446\u4ef6
p323
aV\u52a8\u6f2b\u73a9\u5177
p324
aV\u5361\u7c7b\u4ea7\u54c1
p325
aV\u76f8\u58f0/\u620f?\u73cd\u85cf\u5957\u88c5
p326
aV\u914d\u9970
p327
aV\u7cbe\u7f8e\u9910\u5177
p328
aV\u6559\u6750/\u8003?\u8ba1\u7b97\u673a\u8003\u8bd5
p329
aV\u8d60\u54c1
p330
aV\u624b\u673a\u914d\u4ef6
p331
aV\u65f6\u5c1a\u5f71\u97f3
p332
aV\u9881\u5956\u5178\u793c
p333
aV\u65e5\u97e9\u6d41\u884c
p334
aV\u56fd\u5b66/\u53e4?\u5b50\u90e8
p335
aV\u7cae\u6cb9\u8c03\u5473
p336
aV\u9002\u7528\u5e74\u9f84
p337
aV\u76f8\u58f0/\u620f?\u66f2\u827a
p338
aV\u952e\u76d8\u9f20\u6807
p339
aV\u653f\u6cbb/\u519b?\u653f\u6cbb\u8003\u8bd5\u548c\u6559?
p340
aV\u8336\u5177/\u5496?\u6574\u5957\u8336\u5177
p341
aV\u653f\u6cbb/\u519b?\u5de5\u4eba\u3001\u519c\u6c11\u3001?
p342
aV\u73a9\u5177\u670d\u9970
p343
aV\u620f\u5267/\u7efc?\u5176\u4ed6\u54c1\u79cd\u620f\u66f2
p344
aV\u6e38\u620f\u5916\u8bbe
p345
aV\u9065\u63a7/\u7535?\u673a\u5668\u4eba/\u7535\u52a8
p346
aV\u6838\u5fc3\u914d\u4ef6
p347
aV\u7ea4\u4f53\u745c\u4f3d
p348
aV\u5b97\u6559/\u5e86?\u5e86\u5178\u97f3\u4e50
p349
aV\u70f9\u996a/\u7f8e?\u5bb6\u5e38\u83dc\u8c31
p350
aV\u519c\u4e1a/\u6797?\u56ed\u827a
p351
aV\u65c5\u6e38/\u5730?\u4e16\u754c\u5730\u56fe
p352
aV\u5b55\u4ea7/\u80b2?\u5bb6\u6559\u7406\u8bba\u4e0e\u65b9?
p353
aV\u4e13\u9898\u680f\u76ee
p354
aV\u7ae5\u8f66\u7ae5\u5e8a
p355
aV\u70f9\u996a/\u7f8e?\u65e5\u97e9\u6599\u7406
p356
aV\u79d1\u5b66\u4e0e\u81ea
p357
aV\u65c5\u6e38/\u5730?\u65c5\u6e38\u5730\u56fe
p358
aV\u54f2\u5b66/\u5b97?\u5b97\u6559\u666e\u53ca\u8bfb\u7269
p359
aV\u4e2a\u62a4\u5316\u5986
p360
aV\u5e7c\u513f/\u5c11?\u542c\u8bf4\u8bfb\u5199
p361
aV\u5a5a\u604b\u4e0e\u4e24
p362
aV\u65e5\u7528\u5bb6\u5c45
p363
aV\u79d1\u666e\u8bfb\u7269
p364
aV\u4e2d\u5916\u540d\u9152
p365
aV\u7f8e\u98df/\u5c45?\u5bb6\u88c5\u5bb6\u9970
p366
aV\u6025\u6551\u536b\u751f
p367
aV\u70f9\u996a/\u7f8e?\u8336\u9152\u996e\u54c1
p368
aV\u65f6\u5c1a/\u7f8e?\u54c1\u724c/\u5962\u4f88\u54c1
p369
aV\u53a8\u536b\u7535\u5668
p370
aV\u519c\u4e1a/\u6797?\u519c\u4e1a\u57fa\u7840\u79d1\u5b66
p371
aV\u54f2\u5b66/\u5b97?\u4f0a\u65af\u5170\u6559
p372
aV\u56fd\u5b66/\u53e4?\u7ebf\u88c5\u4e66
p373
aV\u7535\u6c60\u5145\u7535
p374
aV\u5065\u5eb7\u7535\u5668
p375
aV\u4f53\u80b2/\u8fd0?\u7530\u5f84/\u4f53\u64cd
p376
aV\u6587\u5177
p377
aVNULL
p378
aV\u751f\u6d3b
p379
aV\u513f\u7ae5\u97f3\u4e50
p380
aV\u4f53\u80b2/\u8fd0?\u4f53\u80b2\u7406\u8bba\u4e0e\u6559?
p381
aV\u5f71\u89c6\u97f3\u4e50
p382
aV\u79d1\u6280
p383
aV\u6f6e\u6d41\u5973\u5305
p384
aV\u653f\u6cbb/\u519b?\u519b\u4e8b\u7406\u8bba
p385
aV\u54f2\u5b66/\u5b97?\u54f2\u5b66\u7ecf\u5178\u8457\u4f5c
p386
aV\u519c\u4e1a\u751f\u4ea7
p387
aV\u6237\u5916\u978b\u670d
p388
aV\u827a\u672f
p389
aV\u6742\u5fd7/\u671f?\u6570\u7801/\u8ba1\u7b97\u673a
p390
aV\u751f\u6d3b/\u767e?\u4f11\u95f2/\u5a31\u4e50
p391
aV\u653f\u6cbb/\u519b?\u4e16\u754c\u653f\u6cbb
p392
aV\u653f\u6cbb/\u519b?\u4e16\u754c\u519b\u4e8b
p393
aV\u9633\u53f0/\u6237?\u5bb6\u7528\u68af
p394
aV\u6c7d\u8f66\u7528\u54c1
p395
aV\u76f8\u58f0/\u620f?\u76f8\u58f0
p396
aV\u6b27\u7f8e\u6d41\u884c
p397
aV\u4f11\u95f2\u3001\u529f
p398
aV\u70f9\u996a/\u7f8e?\u70d8\u7119\u751c\u54c1
p399
aV\u5bb6\u5c45
p400
aV\u745c\u4f3d/\u5851?\u745c\u4f3d
p401
aV\u5973\u6027\u5065\u5eb7
p402
aV\u517b\u751f/\u4fdd?\u6027\u4fdd\u5065
p403
aV\u751f\u6d3b\u65e5\u7528
p404
aV\u65e5\u5e38\u68c0\u6d4b
p405
aV\u6295\u8d44\u7406\u8d22
p406
aV\u4f53\u80b2/\u8fd0?\u6c34\u4e0a\u8fd0\u52a8
p407
aV\u793c\u54c1\u7bb1\u5305
p408
aV\u7535\u5de5\u7535\u6599
p409
aV\u751f\u6d3b/\u767e?\u533b\u7597/\u4fdd\u5065
p410
aV\u54f2\u5b66/\u5b97?\u897f\u65b9\u54f2\u5b66
p411
aV\u4f11\u95f2\u98df\u54c1
p412
aV\u4e94\u91d1\u5bb6\u88c5
p413
aV\u54f2\u5b66/\u5b97?\u5b97\u6559\u795e\u8bdd\u4e0e\u4f20?
p414
aV\u624b\u673a
p415
aV\u5ba0\u7269\u96f6\u98df
p416
aV\u4f53\u80b2/\u8fd0?\u89c4\u5219/\u88c1\u5224
p417
aV\u65c5\u6e38/\u5730?\u56fd\u5bb6/\u533a\u57df\u5730\u7406
p418
aV\u6587\u5b66
p419
aV\u54f2\u5b66/\u5b97?\u5176\u4ed6\u5b97\u6559
p420
aV\u8425\u517b\u54c1
p421
aV\u5a5a\u604b/\u4e24?\u604b\u7231
p422
aV\u9910\u5177
p423
aV\u624b\u673a\u901a\u8baf
p424
aV\u5bb6\u6559\u4e0e\u80b2
p425
aV\u4fdd\u9669
p426
aV\u6a21\u578b\u73a9\u5177
p427
aV\u70f9\u996a/\u7f8e?\u53a8\u5e08\u7528\u4e66
p428
aV\u65f6\u5c1a/\u7f8e?\u65f6\u5c1a\u5973\u4eba
p429
aV\u9065\u63a7/\u7535?\u8f68\u9053/\u52a9\u529b
p430
aV\u865a\u62df\u5546\u54c1
p431
aV\u8fdb\u53e3\u98df\u54c1
p432
aV\u4f53\u80b2/\u8fd0?\u6781\u9650\u8fd0\u52a8
p433
aV\u5976\u7c89
p434
aV\u7535\u89c6\u5267
p435
aV\u56fd\u5b66/\u53e4?\u7ecf\u90e8
p436
aV\u751f\u6d3b/\u767e?\u821e\u8e48
p437
aV\u65b0\u95fb\u51fa\u7248
p438
aV\u5b58\u50a8\u5361
p439
aV\u653f\u6cbb/\u519b?\u9a6c\u514b\u601d\u4e3b\u4e49\u7406?
p440
aV\u5de5\u4e1a/\u79d1?\u7535\u5de5\u7535\u6c14
p441
aV\u4f53\u80b2
p442
aV\u76ae\u80a4\u7528\u836f
p443
aV\u79ef\u6728\u62fc\u63d2
p444
aV\u65c5\u6e38/\u5730?\u65c5\u6e38\u7406\u8bba\u4e0e\u5b9e?
p445
aV\u65f6\u5c1a/\u7f8e?\u7537\u4eba\u65f6\u5c1a
p446
aV\u6e38\u620f
p447
aV\u7535\u8111\u914d\u4ef6
p448
aV\u5e7c\u513f\u4e0e\u5b66
p449
aV\u8eab\u4f53\u62a4\u7406
p450
aV\u6cd5\u5f8b
p451
aV\u7fe1\u7fe0\u7389\u77f3
p452
aV\u8425\u517b\u5065\u5eb7
p453
aV\u95f9\u949f\u6302\u949f
p454
aV\u6559\u6750/\u8003?\u4e2d\u5c0f\u5b66\u6559\u8f85
p455
aV\u5176\u5b83\u9644\u4ef6
p456
aV\u6c7d\u8f66\u7f8e\u5bb9
p457
aV\u4f20\u8bb0
p458
aV\u4e94\u91d1\u5de5\u5177
p459
aV\u670d\u52a1\u4ea7\u54c1
p460
aV\u6d17\u53d1\u62a4\u53d1
p461
aV\u620f\u5267/\u7efc?\u6b4c\u821e\u5267\u3001\u8bdd\u5267
p462
aV\u5386\u53f2
p463
aV\u7535\u5b50\u7535\u5668
p464
aV\u5916\u79d1\u9aa8\u79d1
p465
aV\u4e50\u5668\u76f8\u5173
p466
aV\u7ecf\u8425\u7ba1\u7406
p467
aV\u94bb\u77f3\u9970\u54c1
p468
aV\u52a8\u6f2b/\u5e7d?\u6e2f\u53f0\u6f2b\u753b
p469
aV\u5b55\u4ea7/\u80b2?\u65e9\u6559/\u4eb2\u5b50\u4e92\u52a8
p470
aV\u97f3\u4e50\u6559\u80b2
p471
aV\u8336\u5177/\u5496?\u8336\u76d8\u8336\u6258
p472
aV\u54f2\u5b66/\u5b97?\u4e1c\u65b9\u54f2\u5b66
p473
aV\u653f\u6cbb/\u519b?\u519b\u4e8b\u6280\u672f
p474
aV\u519c\u4e1a/\u6797?\u519c\u4f5c\u7269
p475
aV\u53e4\u5178
p476
aV\u5987\u79d1\u7528\u836f
p477
aV\u5ba0\u7269\u4e3b\u7cae
p478
aV\u4f53\u80b2/\u8fd0?\u8dc6\u62f3\u9053/\u62f3\u51fb
p479
aV\u54f2\u5b66/\u5b97?\u4f5b\u6559\u7814\u7a76\u8457\u4f5c
p480
aV\u80c3\u80a0\u7528\u836f
p481
aV\u5185\u8863
p482
aV\u5bb6\u7eba
p483
aV\u5065\u8eab\u73a9\u5177
p484
aV\u65f6\u5c1a/\u4f11?\u670d\u9970\u642d\u914d
p485
aV\u653f\u6cbb/\u519b?\u4e2d\u56fd\u519b\u4e8b
p486
aV\u5c3f\u88e4\u6e7f\u5dfe
p487
aV\u5361\u901a/\u52a8?\u5361\u901a\u7535\u5f71
p488
aV\u6742\u5fd7/\u671f?\u65b0\u95fb/\u4eba\u7269
p489
aV\u793e\u4f1a\u79d1\u5b66
p490
aV\u5de5\u4e1a\u6280\u672f
p491
aV\u6e2f\u53f0\u56fe\u4e66
p492
aV\u5367\u5ba4\u5bb6\u5177
p493
aV\u9999\u6c34\u5f69\u5986
p494
aV\u6742\u5fd7/\u671f?\u65f6\u5c1a/\u7f8e\u5986
p495
aV\u54f2\u5b66/\u5b97?\u7f8e\u5b66
p496
aV\u7ecf\u6d4e
p497
aV\u9999\u6c34SPA
p498
aV\u65c5\u6e38/\u5730?\u6237\u5916\u63a2\u9669
p499
aV\u5065\u5eb7\u793c\u54c1
p500
aV\u7ecf\u6d4e\u7ba1\u7406
p501
aV\u6559\u6750/\u8003?\u5927\u5b66\u6559\u6750\u6559\u8f85
p502
aV\u54f2\u5b66/\u5b97?\u4e2d\u56fd\u54f2\u5b66
p503
aV\u653f\u6cbb/\u519b?\u653f\u6cbb\u7406\u8bba
p504
aV\u5bb6\u5c45\u7528\u54c1
p505
aV\u4e13\u4e1a\u821e\u8e48
p506
aV\u6559\u6750/\u8003?\u4e2d\u804c/\u9ad8\u804c\u6559\u6750
p507
aV\u5361\u901a/\u52a8?\u5361\u901a\u7535\u89c6
p508
aV\u65e5\u7528\u7535\u5668
p509
aV\u547c\u5438\u9053\u836f
p510
aV\u56fd\u5b66/\u53e4?\u53f2\u90e8
p511
aV\u9065\u63a7/\u7535?\u9065\u63a7\u8f66
p512
aV\u54f2\u5b66/\u5b97?\u85cf\u4f20\u4f5b\u6559
p513
aV\u653f\u6cbb/\u519b?\u6218\u7565\u6218\u672f\u6218\u5f79
p514
aV\u8003\u8bd5
p515
aV\u6ee1200\u51cf1
p516
aV\u65c5\u6e38/\u5730?\u4e2d\u56fd\u5730\u56fe
p517
aV\u793c\u54c1\u533a
p518
aV\u653f\u6cbb/\u519b?\u653f\u6cbb\u70ed\u70b9
p519
aV\u6742\u5fd7/\u671f?\u7537\u58eb
p520
aV\u5145\u503c
p521
aV\u8fd0\u52a8\u5065\u5eb7
p522
aV\u5bb6\u88c5\u5efa\u6750
p523
aV\u65c5\u6e38/\u5730?\u4e3b\u9898\u65c5\u6e38
p524
aV\u7f51\u7edc\u4ea7\u54c1
p525
aV\u751f\u6d3b/\u767e?\u827a\u672f
p526
aV\u6587\u5316
p527
aV\u6559\u80b2\u97f3\u50cf
p528
aV\u97f3\u89c6\u9891\u4ea7
p529
aV\u653f\u6cbb/\u519b?\u6b66\u5668\u88c5\u5907
p530
aV\u5185\u9970\u7cbe\u54c1
p531
aV\u5c11\u513f
p532
aV\u7eaf\u91d1K\u91d1?\u8033\u9970
p533
aV\u4f53\u80b2/\u8fd0?\u7403\u7c7b\u8fd0\u52a8
p534
aV\u7bb1\u5305
p535
aV\u4eb2\u5b50\u5e7c\u6559
p536
aV\u620f\u5267/\u7efc?\u9ec4\u6885\u620f
p537
aV\u5a31\u4e50/\u4f11?\u98ce\u6c34/\u5360\u535c
p538
aV\u6c11\u6b4c\u6c11\u8c23
p539
aV\u7535\u8111\u6574\u673a
p540
aV\u82f1\u6587\u539f\u7248
p541
aV\u517b\u751f/\u4fdd?\u4e0a\u73ed\u65cf\u4fdd\u5065
p542
aV\u591a\u529f\u80fd\u5305
p543
aV\u73a9\u5177\u4e50\u5668
p544
aVDIY\u73a9\u5177
p545
aV\u773c\u79d1\u7528\u836f
p546
aV\u706f\u5177
p547
aV\u751f\u6d3b\u7535\u5668
p548
aV\u4f53\u80b2\u8fd0\u52a8
p549
aV\u5386\u53f2\u65f6\u7a7a
p550
aV\u54f2\u5b66/\u5b97?\u601d\u7ef4\u79d1\u5b66
p551
atp552
Rp553
.