c__builtin__
set
p0
((lp1
V
p2
aV\u5bb6\u7528\u5668\u68b0
p3
aV\u7535\u5b50\u4e66
p4
aV\u793c\u54c1\u7bb1\u5305
p5
aV\u978b\u9774
p6
aV\u53a8\u5177
p7
aV\u670d\u9970\u978b\u5e3d
p8
aV\u73e0\u5b9d\u9996\u9970
p9
aV\u624b\u673a
p10
aV\u5bb6\u5177\u5bb6\u88c5
p11
aVNULL
p12
aV\u591a\u5a92\u4f53\u56fe\u4e66
p13
aV\u56fe\u4e66
p14
aV\u65e5\u7528\u767e\u8d27
p15
aV\u517b\u751f\u4fdd\u5065
p16
aV\u6570\u5b57\u97f3\u4e50
p17
aV\u7f51\u7edc\u539f\u521b
p18
aV\u5bb6\u7528\u7535\u5668
p19
aV\u8fd0\u52a8\u5065\u5eb7
p20
aV\u5bb6\u88c5\u5efa\u6750
p21
aV\u6559\u80b2\u97f3\u50cf
p22
aV\u5bb6\u5c45\u5bb6\u88c5
p23
aV\u4e2a\u62a4\u5316\u5986
p24
aV\u97f3\u4e50
p25
aV\u673a\u7968\u3001\u5145\u503c
p26
aV\u836f\u54c1
p27
aV\u836f\u5986\u62a4\u7406
p28
aV\u6bcd\u5a74
p29
aV\u751f\u6d3b\u7528\u54c1
p30
aV\u6570\u7801
p31
aV\u6c7d\u8f66\u7528\u54c1
p32
aV\u6570\u5b57\u6742\u5fd7
p33
aV\u5f71\u89c6
p34
aV\u529e\u516c\u7528\u54c1
p35
aV\u98df\u54c1\u996e\u6599\u3001
p36
aV\u7535\u8111\u4ea7\u54c1
p37
aV\u624b\u673a\u6570\u7801
p38
aV\u670d\u9970\u5185\u8863
p39
aV\u6709\u58f0\u8bfb\u7269
p40
aV\u6027\u798f\u751f\u6d3b
p41
aV\u73a9\u5177\u4e50\u5668
p42
aV\u5ba0\u7269\u751f\u6d3b
p43
aV\u7535\u8111\u3001\u529e\u516c
p44
aV\u949f\u8868
p45
aV\u7535\u8111\u9644\u4ef6
p46
aV\u6570\u7801\u4ea7\u54c1
p47
aV\u5bb6\u5177
p48
atp49
Rp50
.